target datalayout = "e-m:e-p270:32:32-p271:32:32-p272:64:64-i64:64-i128:128-f80:128-n8:16:32:64-S128"
target triple = "x86_64-pc-linux-gnu"

%"class.cv::utils::trace::details::Region" = type <{ ptr, i32, [4 x i8] }>
%"struct.cv::VariationalRefinementImpl::ParallelOp_ParBody" = type { %"class.cv::ParallelLoopBody", ptr, %"class.std::vector", %"class.std::vector.0", %"class.std::vector.0", %"class.std::vector.0" }
%"class.cv::ParallelLoopBody" = type { ptr }
%"class.std::vector" = type { %"struct.std::_Vector_base" }
%"struct.std::_Vector_base" = type { %"struct.std::_Vector_base<void (cv::VariationalRefinementImpl::*)(void *, void *, void *), std::allocator<void (cv::VariationalRefinementImpl::*)(void *, void *, void *)>>::_Vector_impl" }
%"struct.std::_Vector_base<void (cv::VariationalRefinementImpl::*)(void *, void *, void *), std::allocator<void (cv::VariationalRefinementImpl::*)(void *, void *, void *)>>::_Vector_impl" = type { %"struct.std::_Vector_base<void (cv::VariationalRefinementImpl::*)(void *, void *, void *), std::allocator<void (cv::VariationalRefinementImpl::*)(void *, void *, void *)>>::_Vector_impl_data" }
%"struct.std::_Vector_base<void (cv::VariationalRefinementImpl::*)(void *, void *, void *), std::allocator<void (cv::VariationalRefinementImpl::*)(void *, void *, void *)>>::_Vector_impl_data" = type { ptr, ptr, ptr }
%"class.std::vector.0" = type { %"struct.std::_Vector_base.1" }
%"struct.std::_Vector_base.1" = type { %"struct.std::_Vector_base<void *, std::allocator<void *>>::_Vector_impl" }
%"struct.std::_Vector_base<void *, std::allocator<void *>>::_Vector_impl" = type { %"struct.std::_Vector_base<void *, std::allocator<void *>>::_Vector_impl_data" }
%"struct.std::_Vector_base<void *, std::allocator<void *>>::_Vector_impl_data" = type { ptr, ptr, ptr }
%"class.cv::Range" = type { i32, i32 }

; Function Attrs: mustprogress nounwind uwtable
define linkonce_odr hidden noundef nonnull align 8 dereferenceable(8) ptr @_ZNKSt6vectorIPvSaIS0_EEixEm(ptr noundef nonnull align 8 dereferenceable(24) %0, i64 noundef %1) #8 comdat align 2 {
  %3 = alloca ptr, align 8
  %4 = alloca i64, align 8
  store ptr %0, ptr %3, align 8, !tbaa !77
  store i64 %1, ptr %4, align 8, !tbaa !60
  %5 = load ptr, ptr %3, align 8
  %6 = getelementptr inbounds nuw %"struct.std::_Vector_base.1", ptr %5, i32 0, i32 0
  %7 = getelementptr inbounds nuw %"struct.std::_Vector_base<void *, std::allocator<void *>>::_Vector_impl_data", ptr %6, i32 0, i32 0
  %8 = load ptr, ptr %7, align 8, !tbaa !95
  %9 = load i64, ptr %4, align 8, !tbaa !60
  %10 = getelementptr inbounds nuw ptr, ptr %8, i64 %9
  ret ptr %10
}

; Function Attrs: mustprogress nounwind uwtable
define linkonce_odr hidden noundef nonnull align 8 dereferenceable(16) ptr @_ZNKSt6vectorIMN2cv25VariationalRefinementImplEFvPvS2_S2_ESaIS4_EEixEm(ptr noundef nonnull align 8 dereferenceable(24) %0, i64 noundef %1) #8 comdat align 2 {
  %3 = alloca ptr, align 8
  %4 = alloca i64, align 8
  store ptr %0, ptr %3, align 8, !tbaa !75
  store i64 %1, ptr %4, align 8, !tbaa !60
  %5 = load ptr, ptr %3, align 8
  %6 = getelementptr inbounds nuw %"struct.std::_Vector_base", ptr %5, i32 0, i32 0
  %7 = getelementptr inbounds nuw %"struct.std::_Vector_base<void (cv::VariationalRefinementImpl::*)(void *, void *, void *), std::allocator<void (cv::VariationalRefinementImpl::*)(void *, void *, void *)>>::_Vector_impl_data", ptr %6, i32 0, i32 0
  %8 = load ptr, ptr %7, align 8, !tbaa !93
  %9 = load i64, ptr %4, align 8, !tbaa !60
  %10 = getelementptr inbounds nuw { i64, i64 }, ptr %8, i64 %9
  ret ptr %10
}

; Function Attrs: mustprogress uwtable
define hidden void @_ZNK2cv25VariationalRefinementImpl18ParallelOp_ParBodyclERKNS_5RangeE(ptr noundef nonnull align 8 dereferenceable(112) %0, ptr noundef nonnull align 4 dereferenceable(8) %1) unnamed_addr #0 align 2 personality ptr @__gxx_personality_v0 {
  %3 = alloca ptr, align 8
  %4 = alloca ptr, align 8
  %5 = alloca %"class.cv::utils::trace::details::Region", align 8
  %6 = alloca i32, align 4
  %7 = alloca ptr, align 8
  %8 = alloca i32, align 4
  store ptr %0, ptr %3, align 8, !tbaa !73
  store ptr %1, ptr %4, align 8, !tbaa !97
  %9 = load ptr, ptr %3, align 8
  call void @llvm.lifetime.start.p0(i64 16, ptr %5) #18
  call void @_ZN2cv5utils5trace7details6RegionC1ERKNS3_21LocationStaticStorageE(ptr noundef nonnull align 8 dereferenceable(12) %5, ptr noundef nonnull align 8 dereferenceable(32) @_ZZNK2cv25VariationalRefinementImpl18ParallelOp_ParBodyclERKNS_5RangeEE25__cv_trace_location_fn430)
  call void @llvm.lifetime.start.p0(i64 4, ptr %6) #18
  %10 = load ptr, ptr %4, align 8, !tbaa !97
  %11 = getelementptr inbounds nuw %"class.cv::Range", ptr %10, i32 0, i32 0
  %12 = load i32, ptr %11, align 4, !tbaa !99
  store i32 %12, ptr %6, align 4, !tbaa !49
  br label %13

13:                                               ; preds = %58, %2
  %14 = load i32, ptr %6, align 4, !tbaa !49
  %15 = load ptr, ptr %4, align 8, !tbaa !97
  %16 = getelementptr inbounds nuw %"class.cv::Range", ptr %15, i32 0, i32 1
  %17 = load i32, ptr %16, align 4, !tbaa !101
  %18 = icmp slt i32 %14, %17
  br i1 %18, label %20, label %19

19:                                               ; preds = %13
  call void @llvm.lifetime.end.p0(i64 4, ptr %6) #18
  br label %65

20:                                               ; preds = %13
  %21 = getelementptr inbounds nuw %"struct.cv::VariationalRefinementImpl::ParallelOp_ParBody", ptr %9, i32 0, i32 1
  %22 = load ptr, ptr %21, align 8, !tbaa !79
  %23 = getelementptr inbounds nuw %"struct.cv::VariationalRefinementImpl::ParallelOp_ParBody", ptr %9, i32 0, i32 2
  %24 = load i32, ptr %6, align 4, !tbaa !49
  %25 = sext i32 %24 to i64
  %26 = call noundef nonnull align 8 dereferenceable(16) ptr @_ZNKSt6vectorIMN2cv25VariationalRefinementImplEFvPvS2_S2_ESaIS4_EEixEm(ptr noundef nonnull align 8 dereferenceable(24) %23, i64 noundef %25) #18
  %27 = load { i64, i64 }, ptr %26, align 8, !tbaa !102
  %28 = extractvalue { i64, i64 } %27, 1
  %29 = getelementptr inbounds i8, ptr %22, i64 %28
  %30 = extractvalue { i64, i64 } %27, 0
  %31 = and i64 %30, 1
  %32 = icmp ne i64 %31, 0
  br i1 %32, label %33, label %38

33:                                               ; preds = %20
  %34 = load ptr, ptr %29, align 8, !tbaa !8
  %35 = sub i64 %30, 1
  %36 = getelementptr i8, ptr %34, i64 %35, !nosanitize !103
  %37 = load ptr, ptr %36, align 8, !nosanitize !103
  br label %40

38:                                               ; preds = %20
  %39 = inttoptr i64 %30 to ptr
  br label %40

40:                                               ; preds = %38, %33
  %41 = phi ptr [ %37, %33 ], [ %39, %38 ]
  %42 = getelementptr inbounds nuw %"struct.cv::VariationalRefinementImpl::ParallelOp_ParBody", ptr %9, i32 0, i32 3
  %43 = load i32, ptr %6, align 4, !tbaa !49
  %44 = sext i32 %43 to i64
  %45 = call noundef nonnull align 8 dereferenceable(8) ptr @_ZNKSt6vectorIPvSaIS0_EEixEm(ptr noundef nonnull align 8 dereferenceable(24) %42, i64 noundef %44) #18
  %46 = load ptr, ptr %45, align 8, !tbaa !104
  %47 = getelementptr inbounds nuw %"struct.cv::VariationalRefinementImpl::ParallelOp_ParBody", ptr %9, i32 0, i32 4
  %48 = load i32, ptr %6, align 4, !tbaa !49
  %49 = sext i32 %48 to i64
  %50 = call noundef nonnull align 8 dereferenceable(8) ptr @_ZNKSt6vectorIPvSaIS0_EEixEm(ptr noundef nonnull align 8 dereferenceable(24) %47, i64 noundef %49) #18
  %51 = load ptr, ptr %50, align 8, !tbaa !104
  %52 = getelementptr inbounds nuw %"struct.cv::VariationalRefinementImpl::ParallelOp_ParBody", ptr %9, i32 0, i32 5
  %53 = load i32, ptr %6, align 4, !tbaa !49
  %54 = sext i32 %53 to i64
  %55 = call noundef nonnull align 8 dereferenceable(8) ptr @_ZNKSt6vectorIPvSaIS0_EEixEm(ptr noundef nonnull align 8 dereferenceable(24) %52, i64 noundef %54) #18
  %56 = load ptr, ptr %55, align 8, !tbaa !104
  invoke void %41(ptr noundef nonnull align 8 dereferenceable(5160) %29, ptr noundef %46, ptr noundef %51, ptr noundef %56)
          to label %57 unwind label %61

57:                                               ; preds = %40
  br label %58

58:                                               ; preds = %57
  %59 = load i32, ptr %6, align 4, !tbaa !49
  %60 = add nsw i32 %59, 1
  store i32 %60, ptr %6, align 4, !tbaa !49
  br label %13, !llvm.loop !105

61:                                               ; preds = %40
  %62 = landingpad { ptr, i32 }
          cleanup
  %63 = extractvalue { ptr, i32 } %62, 0
  store ptr %63, ptr %7, align 8
  %64 = extractvalue { ptr, i32 } %62, 1
  store i32 %64, ptr %8, align 4
  call void @llvm.lifetime.end.p0(i64 4, ptr %6) #18
  call void @_ZN2cv5utils5trace7details6RegionD2Ev(ptr noundef nonnull align 8 dereferenceable(12) %5) #18
  call void @llvm.lifetime.end.p0(i64 16, ptr %5) #18
  br label %66

65:                                               ; preds = %19
  call void @_ZN2cv5utils5trace7details6RegionD2Ev(ptr noundef nonnull align 8 dereferenceable(12) %5) #18
  call void @llvm.lifetime.end.p0(i64 16, ptr %5) #18
  ret void

66:                                               ; preds = %61
  %67 = load ptr, ptr %7, align 8
  %68 = load i32, ptr %8, align 4
  %69 = insertvalue { ptr, i32 } poison, ptr %67, 0
  %70 = insertvalue { ptr, i32 } %69, i32 %68, 1
  resume { ptr, i32 } %70
}