; Function Attrs: mustprogress uwtable
define hidden void @_ZNK2cv25VariationalRefinementImpl18ParallelOp_ParBodyclERKNS_5RangeE(ptr noundef nonnull readonly align 8 captures(none) dereferenceable(112) %0, ptr noundef nonnull readonly align 4 captures(none) dereferenceable(8) %1) unnamed_addr #0 align 2 personality ptr @__gxx_personality_v0 {
  %3 = alloca %"class.cv::utils::trace::details::Region", align 8
  call void @llvm.lifetime.start.p0(i64 16, ptr nonnull %3) #18
  call void @_ZN2cv5utils5trace7details6RegionC1ERKNS3_21LocationStaticStorageE(ptr noundef nonnull align 8 dereferenceable(12) %3, ptr noundef nonnull align 8 dereferenceable(32) @_ZZNK2cv25VariationalRefinementImpl18ParallelOp_ParBodyclERKNS_5RangeEE25__cv_trace_location_fn430)
  %4 = load i32, ptr %1, align 4, !tbaa !77
  %5 = getelementptr inbounds nuw i8, ptr %1, i64 4
  %6 = load i32, ptr %5, align 4, !tbaa !79
  %7 = icmp slt i32 %4, %6
  br i1 %7, label %.lr.ph, label %._crit_edge

.lr.ph:                                           ; preds = %2
  %8 = getelementptr inbounds nuw i8, ptr %0, i64 8
  %9 = getelementptr inbounds nuw i8, ptr %0, i64 16
  %10 = getelementptr inbounds nuw i8, ptr %0, i64 40
  %11 = getelementptr inbounds nuw i8, ptr %0, i64 64
  %12 = getelementptr inbounds nuw i8, ptr %0, i64 88
  %13 = sext i32 %4 to i64
  br label %20

._crit_edge:                                      ; preds = %44, %2
  %14 = getelementptr inbounds nuw i8, ptr %3, i64 8
  %15 = load i32, ptr %14, align 8, !tbaa !33
  %.not.i = icmp eq i32 %15, 0
  br i1 %.not.i, label %_ZN2cv5utils5trace7details6RegionD2Ev.exit, label %16

16:                                               ; preds = %._crit_edge
  invoke void @_ZN2cv5utils5trace7details6Region7destroyEv(ptr noundef nonnull align 8 dereferenceable(12) %3)
          to label %_ZN2cv5utils5trace7details6RegionD2Ev.exit unwind label %17

17:                                               ; preds = %16
  %18 = landingpad { ptr, i32 }
          catch ptr null
  %19 = extractvalue { ptr, i32 } %18, 0
  call void @__clang_call_terminate(ptr %19) #19
  unreachable

_ZN2cv5utils5trace7details6RegionD2Ev.exit:       ; preds = %._crit_edge, %16
  call void @llvm.lifetime.end.p0(i64 16, ptr nonnull %3) #18
  ret void

20:                                               ; preds = %.lr.ph, %44
  %indvars.iv = phi i64 [ %13, %.lr.ph ], [ %indvars.iv.next, %44 ]
  %21 = load ptr, ptr %8, align 8, !tbaa !55
  %22 = load ptr, ptr %9, align 8, !tbaa !69
  %23 = getelementptr inbounds nuw { i64, i64 }, ptr %22, i64 %indvars.iv
  %.unpack = load i64, ptr %23, align 8, !tbaa !80
  %.elt10 = getelementptr inbounds nuw i8, ptr %23, i64 8
  %.unpack11 = load i64, ptr %.elt10, align 8, !tbaa !80
  %24 = getelementptr inbounds i8, ptr %21, i64 %.unpack11
  %25 = and i64 %.unpack, 1
  %.not = icmp eq i64 %25, 0
  br i1 %.not, label %31, label %26

26:                                               ; preds = %20
  %27 = load ptr, ptr %24, align 8, !tbaa !3
  %28 = getelementptr i8, ptr %27, i64 %.unpack
  %29 = getelementptr i8, ptr %28, i64 -1
  %30 = load ptr, ptr %29, align 8, !nosanitize !81
  br label %33

31:                                               ; preds = %20
  %32 = inttoptr i64 %.unpack to ptr
  br label %33

33:                                               ; preds = %31, %26
  %34 = phi ptr [ %30, %26 ], [ %32, %31 ]
  %35 = load ptr, ptr %10, align 8, !tbaa !74
  %36 = getelementptr inbounds nuw ptr, ptr %35, i64 %indvars.iv
  %37 = load ptr, ptr %36, align 8, !tbaa !72
  %38 = load ptr, ptr %11, align 8, !tbaa !74
  %39 = getelementptr inbounds nuw ptr, ptr %38, i64 %indvars.iv
  %40 = load ptr, ptr %39, align 8, !tbaa !72
  %41 = load ptr, ptr %12, align 8, !tbaa !74
  %42 = getelementptr inbounds nuw ptr, ptr %41, i64 %indvars.iv
  %43 = load ptr, ptr %42, align 8, !tbaa !72
  invoke void %34(ptr noundef nonnull align 8 dereferenceable(5160) %24, ptr noundef %37, ptr noundef %40, ptr noundef %43)
          to label %44 unwind label %48

44:                                               ; preds = %33
  %indvars.iv.next = add nsw i64 %indvars.iv, 1
  %45 = load i32, ptr %5, align 4, !tbaa !79
  %46 = sext i32 %45 to i64
  %47 = icmp slt i64 %indvars.iv.next, %46
  br i1 %47, label %20, label %._crit_edge, !llvm.loop !82

48:                                               ; preds = %33
  %49 = landingpad { ptr, i32 }
          cleanup
  call void @_ZN2cv5utils5trace7details6RegionD2Ev(ptr noundef nonnull align 8 dereferenceable(12) %3) #18
  call void @llvm.lifetime.end.p0(i64 16, ptr nonnull %3) #18
  resume { ptr, i32 } %49
}